target datalayout = "e-m:e-p270:32:32-p271:32:32-p272:64:64-i64:64-i128:128-f80:128-n8:16:32:64-S128"
target triple = "x86_64-pc-linux-gnu"

%struct.UEnumeration = type { ptr, ptr, ptr, ptr, ptr, ptr, ptr }
%struct.UTransEnumeration = type { %struct.UEnumeration, i32, i32 }

; Function Attrs: inlinehint mustprogress nounwind uwtable
define internal noundef signext i8 @_ZL9U_FAILURE10UErrorCode(i32 noundef %0) #2 {
  %2 = alloca i32, align 4
  store i32 %0, ptr %2, align 4, !tbaa !40
  %3 = load i32, ptr %2, align 4, !tbaa !40
  %4 = icmp sgt i32 %3, 0
  %5 = zext i1 %4 to i8
  ret i8 %5
}

; Function Attrs: mustprogress uwtable
define internal void @_ZL17utrans_enum_resetP12UEnumerationP10UErrorCode(ptr noundef %0, ptr noundef %1) #1 {
  %3 = alloca ptr, align 8
  %4 = alloca ptr, align 8
  %5 = alloca ptr, align 8
  store ptr %0, ptr %3, align 8, !tbaa !75
  store ptr %1, ptr %4, align 8, !tbaa !39
  %6 = load ptr, ptr %4, align 8, !tbaa !39
  %7 = icmp eq ptr %6, null
  br i1 %7, label %13, label %8

8:                                                ; preds = %2
  %9 = load ptr, ptr %4, align 8, !tbaa !39
  %10 = load i32, ptr %9, align 4, !tbaa !40
  %11 = call noundef signext i8 @_ZL9U_FAILURE10UErrorCode(i32 noundef %10)
  %12 = icmp ne i8 %11, 0
  br i1 %12, label %13, label %14

13:                                               ; preds = %8, %2
  br label %21

14:                                               ; preds = %8
  call void @llvm.lifetime.start.p0(i64 8, ptr %5) #9
  %15 = load ptr, ptr %3, align 8, !tbaa !75
  store ptr %15, ptr %5, align 8, !tbaa !57
  %16 = load ptr, ptr %5, align 8, !tbaa !57
  %17 = getelementptr inbounds nuw %struct.UTransEnumeration, ptr %16, i32 0, i32 1
  store i32 0, ptr %17, align 8, !tbaa !60
  %18 = call noundef i32 @_ZN6icu_7714Transliterator17countAvailableIDsEv()
  %19 = load ptr, ptr %5, align 8, !tbaa !57
  %20 = getelementptr inbounds nuw %struct.UTransEnumeration, ptr %19, i32 0, i32 2
  store i32 %18, ptr %20, align 4, !tbaa !63
  call void @llvm.lifetime.end.p0(i64 8, ptr %5) #9
  br label %21

21:                                               ; preds = %14, %13
  ret void
}