; Function Attrs: mustprogress uwtable
define internal void @_ZL17utrans_enum_resetP12UEnumerationP10UErrorCode(ptr noundef writeonly captures(none) %0, ptr noundef readonly %1) #4 {
  %3 = icmp eq ptr %1, null
  br i1 %3, label %11, label %4

4:                                                ; preds = %2
  %5 = load i32, ptr %1, align 4, !tbaa !23
  %6 = icmp slt i32 %5, 1
  br i1 %6, label %7, label %11

7:                                                ; preds = %4
  %8 = getelementptr inbounds nuw i8, ptr %0, i64 56
  store i32 0, ptr %8, align 8, !tbaa !35
  %9 = tail call noundef i32 @_ZN6icu_7714Transliterator17countAvailableIDsEv()
  %10 = getelementptr inbounds nuw i8, ptr %0, i64 60
  store i32 %9, ptr %10, align 4, !tbaa !38
  br label %11

11:                                               ; preds = %2, %4, %7
  ret void
}